; ModuleID = 'source-C-CXX/57/990.c'
source_filename = "source-C-CXX/57/990.c"
target datalayout = "e-m:e-p270:32:32-p271:32:32-p272:64:64-i64:64-f80:128-n8:16:32:64-S128"
target triple = "x86_64-pc-linux-gnu"

@.str = private unnamed_addr constant [3 x i8] c"%d\00", align 1
@.str.1 = private unnamed_addr constant [5 x i8] c"%d%s\00", align 1
@.str.2 = private unnamed_addr constant [1 x i8] zeroinitializer, align 1
@.str.3 = private unnamed_addr constant [2 x i8] c"\0A\00", align 1

; Function Attrs: nounwind sspstrong uwtable
define dso_local void @main() local_unnamed_addr #0 {
  %1 = alloca i32, align 4
  %2 = alloca [100 x i8], align 16
  %3 = bitcast i32* %1 to i8*
  call void @llvm.lifetime.start.p0i8(i64 4, i8* nonnull %3) #4
  %4 = getelementptr inbounds [100 x i8], [100 x i8]* %2, i64 0, i64 0
  call void @llvm.lifetime.start.p0i8(i64 100, i8* nonnull %4) #4
  %5 = call i32 (i8*, ...) @__isoc99_scanf(i8* getelementptr inbounds ([3 x i8], [3 x i8]* @.str, i64 0, i64 0), i32* nonnull %1)
  %6 = call i32 (i8*, ...) bitcast (i32 (...)* @gets to i32 (i8*, ...)*)(i8* nonnull %4) #4
  %7 = load i32, i32* %1, align 4, !tbaa !5
  %8 = icmp sgt i32 %7, 0
  br i1 %8, label %9, label %50

9:                                                ; preds = %0, %40
  %10 = phi i32 [ %47, %40 ], [ 0, %0 ]
  %11 = call i32 (i8*, ...) bitcast (i32 (...)* @gets to i32 (i8*, ...)*)(i8* nonnull %4) #4
  %12 = load i8, i8* %4, align 16, !tbaa !9
  %13 = icmp eq i8 %12, 0
  br i1 %13, label %40, label %14

14:                                               ; preds = %9, %35
  %15 = phi i64 [ %36, %35 ], [ 0, %9 ]
  %16 = phi i8 [ %38, %35 ], [ %12, %9 ]
  %17 = icmp eq i64 %15, 0
  %18 = add i8 %16, -97
  %19 = icmp ugt i8 %18, 25
  br i1 %17, label %20, label %26

20:                                               ; preds = %14
  br i1 %19, label %21, label %35

21:                                               ; preds = %20
  %22 = add i8 %16, -65
  %23 = icmp ult i8 %22, 26
  %24 = icmp eq i8 %16, 95
  %25 = or i1 %24, %23
  br i1 %25, label %35, label %40

26:                                               ; preds = %14
  br i1 %19, label %27, label %35

27:                                               ; preds = %26
  %28 = add i8 %16, -65
  %29 = icmp ugt i8 %28, 25
  %30 = icmp ne i8 %16, 95
  %31 = and i1 %30, %29
  %32 = add i8 %16, -48
  %33 = icmp ugt i8 %32, 9
  %34 = and i1 %31, %33
  br i1 %34, label %40, label %35

35:                                               ; preds = %20, %21, %27, %26
  %36 = add nuw i64 %15, 1
  %37 = getelementptr inbounds [100 x i8], [100 x i8]* %2, i64 0, i64 %36
  %38 = load i8, i8* %37, align 1, !tbaa !9
  %39 = icmp eq i8 %38, 0
  br i1 %39, label %40, label %14, !llvm.loop !10

40:                                               ; preds = %35, %21, %27, %9
  %41 = phi i32 [ 1, %9 ], [ 0, %27 ], [ 0, %21 ], [ 1, %35 ]
  %42 = load i32, i32* %1, align 4, !tbaa !5
  %43 = add nsw i32 %42, -1
  %44 = icmp eq i32 %10, %43
  %45 = select i1 %44, i8* getelementptr inbounds ([1 x i8], [1 x i8]* @.str.2, i64 0, i64 0), i8* getelementptr inbounds ([2 x i8], [2 x i8]* @.str.3, i64 0, i64 0)
  %46 = call i32 (i8*, ...) @printf(i8* nonnull dereferenceable(1) getelementptr inbounds ([5 x i8], [5 x i8]* @.str.1, i64 0, i64 0), i32 %41, i8* %45)
  %47 = add nuw nsw i32 %10, 1
  %48 = load i32, i32* %1, align 4, !tbaa !5
  %49 = icmp slt i32 %47, %48
  br i1 %49, label %9, label %50, !llvm.loop !12

50:                                               ; preds = %40, %0
  call void @llvm.lifetime.end.p0i8(i64 100, i8* nonnull %4) #4
  call void @llvm.lifetime.end.p0i8(i64 4, i8* nonnull %3) #4
  ret void
}

; Function Attrs: argmemonly mustprogress nofree nosync nounwind willreturn
declare void @llvm.lifetime.start.p0i8(i64 immarg, i8* nocapture) #1

; Function Attrs: nofree nounwind
declare noundef i32 @__isoc99_scanf(i8* nocapture noundef readonly, ...) local_unnamed_addr #2

declare i32 @gets(...) local_unnamed_addr #3

; Function Attrs: nofree nounwind
declare noundef i32 @printf(i8* nocapture noundef readonly, ...) local_unnamed_addr #2

; Function Attrs: argmemonly mustprogress nofree nosync nounwind willreturn
declare void @llvm.lifetime.end.p0i8(i64 immarg, i8* nocapture) #1


!llvm.module.flags = !{!0, !1, !2, !3}
!llvm.ident = !{!4}

!0 = !{i32 1, !"wchar_size", i32 4}
!1 = !{i32 7, !"PIC Level", i32 2}
!2 = !{i32 7, !"PIE Level", i32 2}
!3 = !{i32 7, !"uwtable", i32 1}
!4 = !{!"clang version 13.0.0"}
!5 = !{!6, !6, i64 0}
!6 = !{!"int", !7, i64 0}
!7 = !{!"omnipotent char", !8, i64 0}
!8 = !{!"Simple C/C++ TBAA"}
!9 = !{!7, !7, i64 0}
!10 = distinct !{!10, !11}
!11 = !{!"llvm.loop.mustprogress"}
!12 = distinct !{!12, !11}
